((lp1
(lp2
I30
aI22
aI53
aI10
aI40
aI49
aI31
aI7
aI23
aI14
aI50
aI48
aI41
aI1
aI34
aI45
aI44
aI43
aa(lp3
I32
aI19
aI29
aI27
aI5
aI47
aI38
aI37
aI21
aI2
aI0
aI4
aI28
aI8
aI11
aI24
aI39
aI13
aa(lp4
I18
aI6
aI25
aI35
aI9
aI36
aI15
aI3
aI33
aI52
aI16
aI12
aI20
aI26
aI42
aI51
aI17
aI46
aa(lp5
(lp6
I14
aI10
aI13
aI4
aI17
aI21
aI23
aI3
aI9
aa(lp7
I7
aI5
aI22
aI20
aI0
aI16
aI8
aI24
aI2
aa(lp8
I18
aI12
aI15
aI19
aI1
aI11
aI6
aI25
aat.